ccopy_reg
_reconstructor
p0
(cnltk.tag.stanford
NERTagger
p1
c__builtin__
object
p2
Ntp3
Rp4
(dp5
S'_encoding'
p6
S'utf-8'
p7
sS'java_options'
p8
S'-mx1000m'
p9
sS'_stanford_model'
p10
S'/home/peter/Documents/school/Team-A-NLP/TeamJ/standfordNER/classifiers/english.all.3class.distsim.crf.ser.gz'
p11
sS'_stanford_jar'
p12
S'/home/peter/Documents/school/Team-A-NLP/TeamJ/standfordNER/stanford-ner.jar'
p13
sb.